target datalayout = "e-m:e-p270:32:32-p271:32:32-p272:64:64-i64:64-i128:128-f80:128-n8:16:32:64-S128"
target triple = "x86_64-pc-linux-gnu"

@lv_timer_handler_run_in_period.last_tick = internal global i32 0, align 4

; Function Attrs: nounwind uwtable
define i32 @lv_timer_handler_run_in_period(i32 noundef %0) #0 {
  %2 = alloca i32, align 4
  %3 = alloca i32, align 4
  store i32 %0, ptr %3, align 4, !tbaa !25
  %4 = load i32, ptr @lv_timer_handler_run_in_period.last_tick, align 4, !tbaa !25
  %5 = call i32 @lv_tick_elaps(i32 noundef %4)
  %6 = load i32, ptr %3, align 4, !tbaa !25
  %7 = icmp uge i32 %5, %6
  br i1 %7, label %8, label %11

8:                                                ; preds = %1
  %9 = call i32 @lv_tick_get()
  store i32 %9, ptr @lv_timer_handler_run_in_period.last_tick, align 4, !tbaa !25
  %10 = call i32 @lv_timer_handler()
  store i32 %10, ptr %2, align 4
  br label %12

11:                                               ; preds = %1
  store i32 1, ptr %2, align 4
  br label %12

12:                                               ; preds = %11, %8
  %13 = load i32, ptr %2, align 4
  ret i32 %13
}