; Function Attrs: nounwind uwtable
define i32 @lv_timer_handler_run_in_period(i32 noundef %0) local_unnamed_addr #0 {
  %2 = load i32, ptr @lv_timer_handler_run_in_period.last_tick, align 4, !tbaa !46
  %3 = tail call i32 @lv_tick_elaps(i32 noundef %2) #8
  %.not = icmp ult i32 %3, %0
  br i1 %.not, label %7, label %4

4:                                                ; preds = %1
  %5 = tail call i32 @lv_tick_get() #8
  store i32 %5, ptr @lv_timer_handler_run_in_period.last_tick, align 4, !tbaa !46
  %6 = tail call i32 @lv_timer_handler()
  br label %7

7:                                                ; preds = %1, %4
  %.0 = phi i32 [ %6, %4 ], [ 1, %1 ]
  ret i32 %.0
}